; Function Attrs: mustprogress nounwind uwtable
define hidden noundef float @_ZNK19OpenColorIO_v2_5dev16MixingSliderImpl16getSliderMinEdgeEv(ptr noundef nonnull readonly align 8 captures(none) dereferenceable(24) %0) unnamed_addr #2 align 2 personality ptr @__gxx_personality_v0 {
  %2 = getelementptr inbounds nuw i8, ptr %0, i64 8
  %3 = load ptr, ptr %2, align 8, !tbaa !15
  %4 = load ptr, ptr %3, align 8, !tbaa !3
  %5 = getelementptr inbounds nuw i8, ptr %4, i64 40
  %6 = load ptr, ptr %5, align 8
  %7 = tail call noundef zeroext i1 %6(ptr noundef nonnull align 8 dereferenceable(8) %3) #25
  %8 = getelementptr inbounds nuw i8, ptr %0, i64 16
  br i1 %7, label %24, label %9

9:                                                ; preds = %1
  %10 = getelementptr inbounds nuw i8, ptr %0, i64 20
  %11 = load float, ptr %10, align 4, !tbaa !14
  %12 = fadd float %11, 0xBF847AE140000000
  %13 = load float, ptr %8, align 8, !tbaa !16
  %14 = fcmp olt float %12, %13
  %.sroa.speculated = select i1 %14, float %12, float %13
  %15 = fcmp ugt float %.sroa.speculated, 0.000000e+00
  br i1 %15, label %18, label %16

16:                                               ; preds = %9
  %17 = fmul float %.sroa.speculated, 5.000000e-01
  br label %_ZN19OpenColorIO_v2_5dev12_GLOBAL__N_118linearToPerceptualEf.exit

18:                                               ; preds = %9
  %19 = fcmp ogt float %.sroa.speculated, 0x3FC70A3D80000000
  br i1 %19, label %20, label %23

20:                                               ; preds = %18
  %21 = tail call float @llvm.log10.f32(float %.sroa.speculated), !tbaa !17
  %22 = tail call float @llvm.fmuladd.f32(float %21, float 0x3FE19999A0000000, float 0x3FEAAF0400000000)
  br label %_ZN19OpenColorIO_v2_5dev12_GLOBAL__N_118linearToPerceptualEf.exit

23:                                               ; preds = %18
  %sqrtf.i1 = invoke float @sqrtf(float %.sroa.speculated)
          to label %sqrtf.i.noexc unwind label %27

sqrtf.i.noexc:                                    ; preds = %23
  %abs.i = tail call float @llvm.fabs.f32(float %sqrtf.i1)
  br label %_ZN19OpenColorIO_v2_5dev12_GLOBAL__N_118linearToPerceptualEf.exit

24:                                               ; preds = %1
  %25 = load float, ptr %8, align 8, !tbaa !10
  br label %_ZN19OpenColorIO_v2_5dev12_GLOBAL__N_118linearToPerceptualEf.exit

_ZN19OpenColorIO_v2_5dev12_GLOBAL__N_118linearToPerceptualEf.exit: ; preds = %sqrtf.i.noexc, %20, %16, %24
  %26 = phi float [ %25, %24 ], [ %17, %16 ], [ %22, %20 ], [ %abs.i, %sqrtf.i.noexc ]
  ret float %26

27:                                               ; preds = %23
  %28 = landingpad { ptr, i32 }
          catch ptr null
  %29 = extractvalue { ptr, i32 } %28, 0
  tail call void @__clang_call_terminate(ptr %29) #26
  unreachable
}